; Function Attrs: cold nounwind optsize uwtable
define internal noundef i32 @decode_close(ptr noundef readonly captures(none) %0) #0 {
  %2 = getelementptr inbounds nuw i8, ptr %0, i64 32
  %3 = load ptr, ptr %2, align 8, !tbaa !4
  %4 = getelementptr inbounds nuw i8, ptr %3, i64 2168
  tail call void @av_frame_free(ptr noundef nonnull %4) #8
  %5 = getelementptr inbounds nuw i8, ptr %3, i64 1608
  tail call void @av_freep(ptr noundef nonnull %5) #8
  %6 = getelementptr inbounds nuw i8, ptr %3, i64 1616
  store i32 0, ptr %6, align 8, !tbaa !86
  %7 = getelementptr inbounds nuw i8, ptr %3, i64 1592
  tail call void @av_freep(ptr noundef nonnull %7) #8
  %8 = getelementptr inbounds nuw i8, ptr %3, i64 1600
  store i32 0, ptr %8, align 8, !tbaa !87
  ret i32 0
}